00088500  E96500            jmp word 0x8568
00088503  46                inc si
00088504  6F                outsw
00088505  7272              jc 0x8579
00088507  657374            gs jnc 0x857e
0008850A  59                pop cx
0008850B  0002              add [bp+si],al
0008850D  0101              add [bx+di],ax
0008850F  0002              add [bp+si],al
00088511  E000              loopne 0x8513
00088513  40                inc ax
00088514  0BF0              or si,ax
00088516  0900              or [bx+si],ax
00088518  1200              adc al,[bx+si]
0008851A  0200              add al,[bx+si]
0008851C  0000              add [bx+si],al
0008851E  0000              add [bx+si],al
00088520  0000              add [bx+si],al
00088522  0000              add [bx+si],al
00088524  0000              add [bx+si],al
00088526  2900              sub [bx+si],ax
00088528  0000              add [bx+si],al
0008852A  006661            add [bp+0x61],ah
0008852D  6E                outsb
0008852E  204F53            and [bx+0x53],cl
00088531  2020              and [bx+si],ah
00088533  2020              and [bx+si],ah
00088535  204641            and [bp+0x41],al
00088538  54                push sp
00088539  3132              xor [bp+si],si
0008853B  2020              and [bx+si],ah
0008853D  2000              and [bx+si],al
0008853F  0000              add [bx+si],al
00088541  0000              add [bx+si],al
00088543  0000              add [bx+si],al
00088545  00FF              add bh,bh
00088547  FF00              inc word [bx+si]
00088549  0000              add [bx+si],al
0008854B  9ACF00FFFF        call word 0xffff:0xcf
00088550  0000              add [bx+si],al
00088552  0092CF00          add [bp+si+0xcf],dl
00088556  FF                db 0xff
00088557  FF00              inc word [bx+si]
00088559  800BF2            or byte [bp+di],0xf2
0008855C  0000              add [bx+si],al
0008855E  1F                pop ds
0008855F  003E8508          add [0x885],bh
00088563  0000              add [bx+si],al
00088565  0000              add [bx+si],al
00088567  008CC88E          add [si-0x7138],cl
0008856B  D88EC08E          fmul dword [bp-0x7140]
0008856F  D0BC0001          sar byte [si+0x100],1
00088573  E8AC00            call word 0x8622
00088576  B600              mov dh,0x0
00088578  E8B600            call word 0x8631
0008857B  B8DC02            mov ax,0x2dc
0008857E  89C3              mov bx,ax
00088580  8CC8              mov ax,cs
00088582  8EC0              mov es,ax
00088584  B8409D            mov ax,0x9d40
00088587  8EE8              mov gs,ax
00088589  BF0000            mov di,0x0
0008858C  89FA              mov dx,di
0008858E  6631C0            xor eax,eax
00088591  B90B00            mov cx,0xb
00088594  E8EA00            call word 0x8681
00088597  3C01              cmp al,0x1
00088599  7414              jz 0x85af
0008859B  83C220            add dx,byte +0x20
0008859E  89D7              mov di,dx
000885A0  81FA001C          cmp dx,0x1c00
000885A4  7302              jnc 0x85a8
000885A6  EBEC              jmp short 0x8594
000885A8  B601              mov dh,0x1
000885AA  E88400            call word 0x8631
000885AD  EBFE              jmp short 0x85ad
000885AF  52                push dx
000885B0  B602              mov dh,0x2
000885B2  E87C00            call word 0x8631
000885B5  5A                pop dx
000885B6  89D7              mov di,dx
000885B8  83C71A            add di,byte +0x1a
000885BB  B8409D            mov ax,0x9d40
000885BE  8EC0              mov es,ax
000885C0  268B05            mov ax,[es:di]
000885C3  BA4098            mov dx,0x9840
000885C6  8EEA              mov gs,dx
000885C8  BA0060            mov dx,0x6000
000885CB  8EC2              mov es,dx
000885CD  BB0000            mov bx,0x0
000885D0  BF0000            mov di,0x0
000885D3  53                push bx
000885D4  50                push ax
000885D5  83E802            sub ax,byte +0x2
000885D8  83C021            add ax,byte +0x21
000885DB  B101              mov cl,0x1
000885DD  E86D00            call word 0x864d
000885E0  58                pop ax
000885E1  B202              mov dl,0x2
000885E3  F6E2              mul dl
000885E5  BF0000            mov di,0x0
000885E8  01C7              add di,ax
000885EA  6631C0            xor eax,eax
000885ED  658B0D            mov cx,[gs:di]
000885F0  81F9F80F          cmp cx,0xff8
000885F4  7D09              jnl 0x85ff
000885F6  89C8              mov ax,cx
000885F8  5B                pop bx
000885F9  81C30002          add bx,0x200
000885FD  EBD4              jmp short 0x85d3
000885FF  B603              mov dh,0x3
00088601  E82D00            call word 0x8631
00088604  0F01165E01        lgdt [0x15e]
00088609  FA                cli
0008860A  E492              in al,0x92
0008860C  0C02              or al,0x2
0008860E  E692              out 0x92,al
00088610  0F20C0            mov eax,cr0
00088613  6683C801          or eax,byte +0x1
00088617  0F22C0            mov cr0,eax
0008861A  66EAE88608000800  jmp dword 0x8:0x886e8
00088622  B80006            mov ax,0x600
00088625  BB0007            mov bx,0x700
00088628  B90000            mov cx,0x0
0008862B  BA4F18            mov dx,0x184f
0008862E  CD10              int 0x10
00088630  C3                ret
00088631  8CC8              mov ax,cs
00088633  8EC0              mov es,ax
00088635  B80E00            mov ax,0xe
00088638  F6E6              mul dh
0008863A  05A402            add ax,0x2a4
0008863D  89C5              mov bp,ax
0008863F  B90E00            mov cx,0xe
00088642  B80113            mov ax,0x1301
00088645  BB0C00            mov bx,0xc
00088648  B200              mov dl,0x0
0008864A  CD10              int 0x10
0008864C  C3                ret
0008864D  55                push bp
0008864E  6683EC02          sub esp,byte +0x2
00088652  67884C2402        mov [dword esp+0x2],cl
00088657  53                push bx
00088658  8A1E1801          mov bl,[0x118]
0008865C  F6F3              div bl
0008865E  FEC4              inc ah
00088660  88E1              mov cl,ah
00088662  88C6              mov dh,al
00088664  D0E8              shr al,1
00088666  88C5              mov ch,al
00088668  80E601            and dh,0x1
0008866B  5B                pop bx
0008866C  8A162401          mov dl,[0x124]
00088670  678A442402        mov al,[dword esp+0x2]
00088675  B402              mov ah,0x2
00088677  CD13              int 0x13
00088679  72F5              jc 0x8670
0008867B  6683C402          add esp,byte +0x2
0008867F  5D                pop bp
00088680  C3                ret
00088681  52                push dx
00088682  53                push bx
00088683  57                push di
00088684  6631C0            xor eax,eax
00088687  268A27            mov ah,[es:bx]
0008868A  658A35            mov dh,[gs:di]
0008868D  38F4              cmp ah,dh
0008868F  7506              jnz 0x8697
00088691  43                inc bx
00088692  47                inc di
00088693  E2F2              loop 0x8687
00088695  EB04              jmp short 0x869b
00088697  B000              mov al,0x0
00088699  EB02              jmp short 0x869d
0008869B  B001              mov al,0x1
0008869D  5F                pop di
0008869E  5B                pop bx
0008869F  5A                pop dx
000886A0  C3                ret
000886A1  0000              add [bx+si],al
000886A3  005365            add [bp+di+0x65],dl
000886A6  61                popaw
000886A7  7263              jc 0x870c
000886A9  682020            push word 0x2020
000886AC  4B                dec bx
000886AD  65726E            gs jc 0x871e
000886B0  656C              gs insb
000886B2  4E                dec si
000886B3  4F                dec di
000886B4  2009              and [bx+di],cl
000886B6  2020              and [bx+si],ah
000886B8  2020              and [bx+si],ah
000886BA  6B65726E          imul sp,[di+0x72],byte +0x6e
000886BE  656C              gs insb
000886C0  4C                dec sp
000886C1  6F                outsw
000886C2  61                popaw
000886C3  64696E67204B      imul bp,[fs:bp+0x67],word 0x4b20
000886C9  65726E            gs jc 0x873a
000886CC  656C              gs insb
000886CE  6A6D              push byte +0x6d
000886D0  7020              jo 0x86f2
000886D2  746F              jz 0x8743
000886D4  2020              and [bx+si],ah
000886D6  3332              xor si,[bp+si]
000886D8  636F64            arpl [bx+0x64],bp
000886DB  654B              gs dec bx
000886DD  45                inc bp
000886DE  52                push dx
000886DF  4E                dec si
000886E0  45                inc bp
000886E1  4C                dec sp
000886E2  2020              and [bx+si],ah
000886E4  42                inc dx
000886E5  49                dec cx
000886E6  4E                dec si
000886E7  0066B8            add [bp-0x48],ah
000886EA  1B00              sbb ax,[bx+si]
000886EC  8EE8              mov gs,ax
000886EE  66B810008ED8      mov eax,0xd88e0010
000886F4  8EC0              mov es,ax
000886F6  8EE0              mov fs,ax
000886F8  8ED0              mov ss,ax
000886FA  BC7C97            mov sp,0x977c
000886FD  0800              or [bx+si],al
000886FF  B40C              mov ah,0xc
00088701  B050              mov al,0x50
00088703  6566A34E00        mov [gs:0x4e],eax
00088708  0000              add [bx+si],al
0008870A  E83000            call word 0x873d
0008870D  0000              add [bx+si],al
0008870F  EA00001000        jmp word 0x10:0x0
00088714  0800              or [bx+si],al
00088716  55                push bp
00088717  89E5              mov bp,sp
00088719  56                push si
0008871A  57                push di
0008871B  51                push cx
0008871C  8B7D08            mov di,[di+0x8]
0008871F  8B750C            mov si,[di+0xc]
00088722  8B4D10            mov cx,[di+0x10]
00088725  83F900            cmp cx,byte +0x0
00088728  740B              jz 0x8735
0008872A  3E8A064626        mov al,[ds:0x2646]
0008872F  8807              mov [bx],al
00088731  47                inc di
00088732  49                dec cx
00088733  EBF0              jmp short 0x8725
00088735  8B4508            mov ax,[di+0x8]
00088738  59                pop cx
00088739  5F                pop di
0008873A  5E                pop si
0008873B  89EC              mov sp,bp
0008873D  5D                pop bp
0008873E  C3                ret
0008873F  31F6              xor si,si
00088741  668B0D            mov ecx,[di]
00088744  2C00              sub al,0x0
00088746  06                push es
00088747  000F              add [bx],cl
00088749  B7C9              mov bh,0xc9
0008874B  8B35              mov si,[di]
0008874D  1C00              sbb al,0x0
0008874F  06                push es
00088750  0081C600          add [bx+di+0xc6],al
00088754  0006008B          add [0x8b00],al
00088758  06                push es
00088759  83F800            cmp ax,byte +0x0
0008875C  7417              jz 0x8775
0008875E  FF7610            push word [bp+0x10]
00088761  8B4604            mov ax,[bp+0x4]
00088764  050000            add ax,0x0
00088767  06                push es
00088768  0050FF            add [bx+si-0x1],dl
0008876B  7608              jna 0x8775
0008876D  E8A4FF            call word 0x8714
00088770  FF                db 0xff
00088771  FF83C40C          inc word [bp+di+0xcc4]
00088775  83C620            add si,byte +0x20
00088778  49                dec cx
00088779  75DC              jnz 0x8757
0008877B  C3                ret
0008877C  0000              add [bx+si],al
0008877E  0000              add [bx+si],al
00088780  0000              add [bx+si],al
00088782  0000              add [bx+si],al
00088784  0000              add [bx+si],al
00088786  0000              add [bx+si],al
00088788  0000              add [bx+si],al
0008878A  0000              add [bx+si],al
0008878C  0000              add [bx+si],al
0008878E  0000              add [bx+si],al
00088790  0000              add [bx+si],al
00088792  0000              add [bx+si],al
00088794  0000              add [bx+si],al
00088796  0000              add [bx+si],al
00088798  0000              add [bx+si],al
0008879A  0000              add [bx+si],al
0008879C  0000              add [bx+si],al
0008879E  0000              add [bx+si],al
000887A0  0000              add [bx+si],al
000887A2  0000              add [bx+si],al
000887A4  0000              add [bx+si],al
000887A6  0000              add [bx+si],al
000887A8  0000              add [bx+si],al
000887AA  0000              add [bx+si],al
000887AC  0000              add [bx+si],al
000887AE  0000              add [bx+si],al
000887B0  0000              add [bx+si],al
000887B2  0000              add [bx+si],al
000887B4  0000              add [bx+si],al
000887B6  0000              add [bx+si],al
000887B8  0000              add [bx+si],al
000887BA  0000              add [bx+si],al
000887BC  0000              add [bx+si],al
000887BE  0000              add [bx+si],al
000887C0  0000              add [bx+si],al
000887C2  0000              add [bx+si],al
000887C4  0000              add [bx+si],al
000887C6  0000              add [bx+si],al
000887C8  0000              add [bx+si],al
000887CA  0000              add [bx+si],al
000887CC  0000              add [bx+si],al
000887CE  0000              add [bx+si],al
000887D0  0000              add [bx+si],al
000887D2  0000              add [bx+si],al
000887D4  0000              add [bx+si],al
000887D6  0000              add [bx+si],al
000887D8  0000              add [bx+si],al
000887DA  0000              add [bx+si],al
000887DC  0000              add [bx+si],al
000887DE  0000              add [bx+si],al
000887E0  0000              add [bx+si],al
000887E2  0000              add [bx+si],al
000887E4  0000              add [bx+si],al
000887E6  0000              add [bx+si],al
000887E8  0000              add [bx+si],al
000887EA  0000              add [bx+si],al
000887EC  0000              add [bx+si],al
000887EE  0000              add [bx+si],al
000887F0  0000              add [bx+si],al
000887F2  0000              add [bx+si],al
000887F4  0000              add [bx+si],al
000887F6  0000              add [bx+si],al
000887F8  0000              add [bx+si],al
000887FA  0000              add [bx+si],al
000887FC  0000              add [bx+si],al
000887FE  0000              add [bx+si],al
00088800  0000              add [bx+si],al
00088802  0000              add [bx+si],al
00088804  0000              add [bx+si],al
00088806  0000              add [bx+si],al
00088808  0000              add [bx+si],al
0008880A  0000              add [bx+si],al
0008880C  0000              add [bx+si],al
0008880E  0000              add [bx+si],al
00088810  0000              add [bx+si],al
00088812  0000              add [bx+si],al
00088814  0000              add [bx+si],al
00088816  0000              add [bx+si],al
00088818  0000              add [bx+si],al
0008881A  0000              add [bx+si],al
0008881C  0000              add [bx+si],al
0008881E  0000              add [bx+si],al
00088820  0000              add [bx+si],al
00088822  0000              add [bx+si],al
00088824  0000              add [bx+si],al
00088826  0000              add [bx+si],al
00088828  0000              add [bx+si],al
0008882A  0000              add [bx+si],al
0008882C  0000              add [bx+si],al
0008882E  0000              add [bx+si],al
00088830  0000              add [bx+si],al
00088832  0000              add [bx+si],al
00088834  0000              add [bx+si],al
00088836  0000              add [bx+si],al
00088838  0000              add [bx+si],al
0008883A  0000              add [bx+si],al
0008883C  0000              add [bx+si],al
0008883E  0000              add [bx+si],al
00088840  0000              add [bx+si],al
00088842  0000              add [bx+si],al
00088844  0000              add [bx+si],al
00088846  0000              add [bx+si],al
00088848  0000              add [bx+si],al
0008884A  0000              add [bx+si],al
0008884C  0000              add [bx+si],al
0008884E  0000              add [bx+si],al
00088850  0000              add [bx+si],al
00088852  0000              add [bx+si],al
00088854  0000              add [bx+si],al
00088856  0000              add [bx+si],al
00088858  0000              add [bx+si],al
0008885A  0000              add [bx+si],al
0008885C  0000              add [bx+si],al
0008885E  0000              add [bx+si],al
00088860  0000              add [bx+si],al
00088862  0000              add [bx+si],al
00088864  0000              add [bx+si],al
00088866  0000              add [bx+si],al
00088868  0000              add [bx+si],al
0008886A  0000              add [bx+si],al
0008886C  0000              add [bx+si],al
0008886E  0000              add [bx+si],al
00088870  0000              add [bx+si],al
00088872  0000              add [bx+si],al
00088874  0000              add [bx+si],al
00088876  0000              add [bx+si],al
00088878  0000              add [bx+si],al
0008887A  0000              add [bx+si],al
0008887C  0000              add [bx+si],al
0008887E  0000              add [bx+si],al
00088880  0000              add [bx+si],al
00088882  0000              add [bx+si],al
00088884  0000              add [bx+si],al
00088886  0000              add [bx+si],al
00088888  0000              add [bx+si],al
0008888A  0000              add [bx+si],al
0008888C  0000              add [bx+si],al
0008888E  0000              add [bx+si],al
00088890  0000              add [bx+si],al
00088892  0000              add [bx+si],al
00088894  0000              add [bx+si],al
00088896  0000              add [bx+si],al
00088898  0000              add [bx+si],al
0008889A  0000              add [bx+si],al
0008889C  0000              add [bx+si],al
0008889E  0000              add [bx+si],al
000888A0  0000              add [bx+si],al
000888A2  0000              add [bx+si],al
000888A4  0000              add [bx+si],al
000888A6  0000              add [bx+si],al
000888A8  0000              add [bx+si],al
000888AA  0000              add [bx+si],al
000888AC  0000              add [bx+si],al
000888AE  0000              add [bx+si],al
000888B0  0000              add [bx+si],al
000888B2  0000              add [bx+si],al
000888B4  0000              add [bx+si],al
000888B6  0000              add [bx+si],al
000888B8  0000              add [bx+si],al
000888BA  0000              add [bx+si],al
000888BC  0000              add [bx+si],al
000888BE  0000              add [bx+si],al
000888C0  0000              add [bx+si],al
000888C2  0000              add [bx+si],al
000888C4  0000              add [bx+si],al
000888C6  0000              add [bx+si],al
000888C8  0000              add [bx+si],al
000888CA  0000              add [bx+si],al
000888CC  0000              add [bx+si],al
000888CE  0000              add [bx+si],al
000888D0  0000              add [bx+si],al
000888D2  0000              add [bx+si],al
000888D4  0000              add [bx+si],al
000888D6  0000              add [bx+si],al
000888D8  0000              add [bx+si],al
000888DA  0000              add [bx+si],al
000888DC  0000              add [bx+si],al
000888DE  0000              add [bx+si],al
000888E0  0000              add [bx+si],al
000888E2  0000              add [bx+si],al
000888E4  0000              add [bx+si],al
000888E6  0000              add [bx+si],al
000888E8  0000              add [bx+si],al
000888EA  0000              add [bx+si],al
000888EC  0000              add [bx+si],al
000888EE  0000              add [bx+si],al
000888F0  0000              add [bx+si],al
000888F2  0000              add [bx+si],al
000888F4  0000              add [bx+si],al
000888F6  0000              add [bx+si],al
000888F8  0000              add [bx+si],al
000888FA  0000              add [bx+si],al
000888FC  0000              add [bx+si],al
000888FE  0000              add [bx+si],al
00088900  0000              add [bx+si],al
00088902  0000              add [bx+si],al
00088904  0000              add [bx+si],al
00088906  0000              add [bx+si],al
00088908  0000              add [bx+si],al
0008890A  0000              add [bx+si],al
0008890C  0000              add [bx+si],al
0008890E  0000              add [bx+si],al
00088910  0000              add [bx+si],al
00088912  0000              add [bx+si],al
00088914  0000              add [bx+si],al
00088916  0000              add [bx+si],al
00088918  0000              add [bx+si],al
0008891A  0000              add [bx+si],al
0008891C  0000              add [bx+si],al
0008891E  0000              add [bx+si],al
00088920  0000              add [bx+si],al
00088922  0000              add [bx+si],al
00088924  0000              add [bx+si],al
00088926  0000              add [bx+si],al
00088928  0000              add [bx+si],al
0008892A  0000              add [bx+si],al
0008892C  0000              add [bx+si],al
0008892E  0000              add [bx+si],al
00088930  0000              add [bx+si],al
00088932  0000              add [bx+si],al
00088934  0000              add [bx+si],al
00088936  0000              add [bx+si],al
00088938  0000              add [bx+si],al
0008893A  0000              add [bx+si],al
0008893C  0000              add [bx+si],al
0008893E  0000              add [bx+si],al
00088940  0000              add [bx+si],al
00088942  0000              add [bx+si],al
00088944  0000              add [bx+si],al
00088946  0000              add [bx+si],al
00088948  0000              add [bx+si],al
0008894A  0000              add [bx+si],al
0008894C  0000              add [bx+si],al
0008894E  0000              add [bx+si],al
00088950  0000              add [bx+si],al
00088952  0000              add [bx+si],al
00088954  0000              add [bx+si],al
00088956  0000              add [bx+si],al
00088958  0000              add [bx+si],al
0008895A  0000              add [bx+si],al
0008895C  0000              add [bx+si],al
0008895E  0000              add [bx+si],al
00088960  0000              add [bx+si],al
00088962  0000              add [bx+si],al
00088964  0000              add [bx+si],al
00088966  0000              add [bx+si],al
00088968  0000              add [bx+si],al
0008896A  0000              add [bx+si],al
0008896C  0000              add [bx+si],al
0008896E  0000              add [bx+si],al
00088970  0000              add [bx+si],al
00088972  0000              add [bx+si],al
00088974  0000              add [bx+si],al
00088976  0000              add [bx+si],al
00088978  0000              add [bx+si],al
0008897A  0000              add [bx+si],al
0008897C  0000              add [bx+si],al
0008897E  0000              add [bx+si],al
00088980  0000              add [bx+si],al
00088982  0000              add [bx+si],al
00088984  0000              add [bx+si],al
00088986  0000              add [bx+si],al
00088988  0000              add [bx+si],al
0008898A  0000              add [bx+si],al
0008898C  0000              add [bx+si],al
0008898E  0000              add [bx+si],al
00088990  0000              add [bx+si],al
00088992  0000              add [bx+si],al
00088994  0000              add [bx+si],al
00088996  0000              add [bx+si],al
00088998  0000              add [bx+si],al
0008899A  0000              add [bx+si],al
0008899C  0000              add [bx+si],al
0008899E  0000              add [bx+si],al
000889A0  0000              add [bx+si],al
000889A2  0000              add [bx+si],al
000889A4  0000              add [bx+si],al
000889A6  0000              add [bx+si],al
000889A8  0000              add [bx+si],al
000889AA  0000              add [bx+si],al
000889AC  0000              add [bx+si],al
000889AE  0000              add [bx+si],al
000889B0  0000              add [bx+si],al
000889B2  0000              add [bx+si],al
000889B4  0000              add [bx+si],al
000889B6  0000              add [bx+si],al
000889B8  0000              add [bx+si],al
000889BA  0000              add [bx+si],al
000889BC  0000              add [bx+si],al
000889BE  0000              add [bx+si],al
000889C0  0000              add [bx+si],al
000889C2  0000              add [bx+si],al
000889C4  0000              add [bx+si],al
000889C6  0000              add [bx+si],al
000889C8  0000              add [bx+si],al
000889CA  0000              add [bx+si],al
000889CC  0000              add [bx+si],al
000889CE  0000              add [bx+si],al
000889D0  0000              add [bx+si],al
000889D2  0000              add [bx+si],al
000889D4  0000              add [bx+si],al
000889D6  0000              add [bx+si],al
000889D8  0000              add [bx+si],al
000889DA  0000              add [bx+si],al
000889DC  0000              add [bx+si],al
000889DE  0000              add [bx+si],al
000889E0  0000              add [bx+si],al
000889E2  0000              add [bx+si],al
000889E4  0000              add [bx+si],al
000889E6  0000              add [bx+si],al
000889E8  0000              add [bx+si],al
000889EA  0000              add [bx+si],al
000889EC  0000              add [bx+si],al
000889EE  0000              add [bx+si],al
000889F0  0000              add [bx+si],al
000889F2  0000              add [bx+si],al
000889F4  0000              add [bx+si],al
000889F6  0000              add [bx+si],al
000889F8  0000              add [bx+si],al
000889FA  0000              add [bx+si],al
000889FC  0000              add [bx+si],al
000889FE  0000              add [bx+si],al
00088A00  0000              add [bx+si],al
00088A02  0000              add [bx+si],al
00088A04  0000              add [bx+si],al
00088A06  0000              add [bx+si],al
00088A08  0000              add [bx+si],al
00088A0A  0000              add [bx+si],al
00088A0C  0000              add [bx+si],al
00088A0E  0000              add [bx+si],al
00088A10  0000              add [bx+si],al
00088A12  0000              add [bx+si],al
00088A14  0000              add [bx+si],al
00088A16  0000              add [bx+si],al
00088A18  0000              add [bx+si],al
00088A1A  0000              add [bx+si],al
00088A1C  0000              add [bx+si],al
00088A1E  0000              add [bx+si],al
00088A20  0000              add [bx+si],al
00088A22  0000              add [bx+si],al
00088A24  0000              add [bx+si],al
00088A26  0000              add [bx+si],al
00088A28  0000              add [bx+si],al
00088A2A  0000              add [bx+si],al
00088A2C  0000              add [bx+si],al
00088A2E  0000              add [bx+si],al
00088A30  0000              add [bx+si],al
00088A32  0000              add [bx+si],al
00088A34  0000              add [bx+si],al
00088A36  0000              add [bx+si],al
00088A38  0000              add [bx+si],al
00088A3A  0000              add [bx+si],al
00088A3C  0000              add [bx+si],al
00088A3E  0000              add [bx+si],al
00088A40  0000              add [bx+si],al
00088A42  0000              add [bx+si],al
00088A44  0000              add [bx+si],al
00088A46  0000              add [bx+si],al
00088A48  0000              add [bx+si],al
00088A4A  0000              add [bx+si],al
00088A4C  0000              add [bx+si],al
00088A4E  0000              add [bx+si],al
00088A50  0000              add [bx+si],al
00088A52  0000              add [bx+si],al
00088A54  0000              add [bx+si],al
00088A56  0000              add [bx+si],al
00088A58  0000              add [bx+si],al
00088A5A  0000              add [bx+si],al
00088A5C  0000              add [bx+si],al
00088A5E  0000              add [bx+si],al
00088A60  0000              add [bx+si],al
00088A62  0000              add [bx+si],al
00088A64  0000              add [bx+si],al
00088A66  0000              add [bx+si],al
00088A68  0000              add [bx+si],al
00088A6A  0000              add [bx+si],al
00088A6C  0000              add [bx+si],al
00088A6E  0000              add [bx+si],al
00088A70  0000              add [bx+si],al
00088A72  0000              add [bx+si],al
00088A74  0000              add [bx+si],al
00088A76  0000              add [bx+si],al
00088A78  0000              add [bx+si],al
00088A7A  0000              add [bx+si],al
00088A7C  0000              add [bx+si],al
00088A7E  0000              add [bx+si],al
00088A80  0000              add [bx+si],al
00088A82  0000              add [bx+si],al
00088A84  0000              add [bx+si],al
00088A86  0000              add [bx+si],al
00088A88  0000              add [bx+si],al
00088A8A  0000              add [bx+si],al
00088A8C  0000              add [bx+si],al
00088A8E  0000              add [bx+si],al
00088A90  0000              add [bx+si],al
00088A92  0000              add [bx+si],al
00088A94  0000              add [bx+si],al
00088A96  0000              add [bx+si],al
00088A98  0000              add [bx+si],al
00088A9A  0000              add [bx+si],al
00088A9C  0000              add [bx+si],al
00088A9E  0000              add [bx+si],al
00088AA0  0000              add [bx+si],al
00088AA2  0000              add [bx+si],al
00088AA4  0000              add [bx+si],al
00088AA6  0000              add [bx+si],al
00088AA8  0000              add [bx+si],al
00088AAA  0000              add [bx+si],al
00088AAC  0000              add [bx+si],al
00088AAE  0000              add [bx+si],al
00088AB0  0000              add [bx+si],al
00088AB2  0000              add [bx+si],al
00088AB4  0000              add [bx+si],al
00088AB6  0000              add [bx+si],al
00088AB8  0000              add [bx+si],al
00088ABA  0000              add [bx+si],al
00088ABC  0000              add [bx+si],al
00088ABE  0000              add [bx+si],al
00088AC0  0000              add [bx+si],al
00088AC2  0000              add [bx+si],al
00088AC4  0000              add [bx+si],al
00088AC6  0000              add [bx+si],al
00088AC8  0000              add [bx+si],al
00088ACA  0000              add [bx+si],al
00088ACC  0000              add [bx+si],al
00088ACE  0000              add [bx+si],al
00088AD0  0000              add [bx+si],al
00088AD2  0000              add [bx+si],al
00088AD4  0000              add [bx+si],al
00088AD6  0000              add [bx+si],al
00088AD8  0000              add [bx+si],al
00088ADA  0000              add [bx+si],al
00088ADC  0000              add [bx+si],al
00088ADE  0000              add [bx+si],al
00088AE0  0000              add [bx+si],al
00088AE2  0000              add [bx+si],al
00088AE4  0000              add [bx+si],al
00088AE6  0000              add [bx+si],al
00088AE8  0000              add [bx+si],al
00088AEA  0000              add [bx+si],al
00088AEC  0000              add [bx+si],al
00088AEE  0000              add [bx+si],al
00088AF0  0000              add [bx+si],al
00088AF2  0000              add [bx+si],al
00088AF4  0000              add [bx+si],al
00088AF6  0000              add [bx+si],al
00088AF8  0000              add [bx+si],al
00088AFA  0000              add [bx+si],al
00088AFC  0000              add [bx+si],al
00088AFE  0000              add [bx+si],al
00088B00  0000              add [bx+si],al
00088B02  0000              add [bx+si],al
00088B04  0000              add [bx+si],al
00088B06  0000              add [bx+si],al
00088B08  0000              add [bx+si],al
00088B0A  0000              add [bx+si],al
00088B0C  0000              add [bx+si],al
00088B0E  0000              add [bx+si],al
00088B10  0000              add [bx+si],al
00088B12  0000              add [bx+si],al
00088B14  0000              add [bx+si],al
00088B16  0000              add [bx+si],al
00088B18  0000              add [bx+si],al
00088B1A  0000              add [bx+si],al
00088B1C  0000              add [bx+si],al
00088B1E  0000              add [bx+si],al
00088B20  0000              add [bx+si],al
00088B22  0000              add [bx+si],al
00088B24  0000              add [bx+si],al
00088B26  0000              add [bx+si],al
00088B28  0000              add [bx+si],al
00088B2A  0000              add [bx+si],al
00088B2C  0000              add [bx+si],al
00088B2E  0000              add [bx+si],al
00088B30  0000              add [bx+si],al
00088B32  0000              add [bx+si],al
00088B34  0000              add [bx+si],al
00088B36  0000              add [bx+si],al
00088B38  0000              add [bx+si],al
00088B3A  0000              add [bx+si],al
00088B3C  0000              add [bx+si],al
00088B3E  0000              add [bx+si],al
00088B40  0000              add [bx+si],al
00088B42  0000              add [bx+si],al
00088B44  0000              add [bx+si],al
00088B46  0000              add [bx+si],al
00088B48  0000              add [bx+si],al
00088B4A  0000              add [bx+si],al
00088B4C  0000              add [bx+si],al
00088B4E  0000              add [bx+si],al
00088B50  0000              add [bx+si],al
00088B52  0000              add [bx+si],al
00088B54  0000              add [bx+si],al
00088B56  0000              add [bx+si],al
00088B58  0000              add [bx+si],al
00088B5A  0000              add [bx+si],al
00088B5C  0000              add [bx+si],al
00088B5E  0000              add [bx+si],al
00088B60  0000              add [bx+si],al
00088B62  0000              add [bx+si],al
00088B64  0000              add [bx+si],al
00088B66  0000              add [bx+si],al
00088B68  0000              add [bx+si],al
00088B6A  0000              add [bx+si],al
00088B6C  0000              add [bx+si],al
00088B6E  0000              add [bx+si],al
00088B70  0000              add [bx+si],al
00088B72  0000              add [bx+si],al
00088B74  0000              add [bx+si],al
00088B76  0000              add [bx+si],al
00088B78  0000              add [bx+si],al
00088B7A  0000              add [bx+si],al
00088B7C  0000              add [bx+si],al
00088B7E  0000              add [bx+si],al
00088B80  0000              add [bx+si],al
00088B82  0000              add [bx+si],al
00088B84  0000              add [bx+si],al
00088B86  0000              add [bx+si],al
00088B88  0000              add [bx+si],al
00088B8A  0000              add [bx+si],al
00088B8C  0000              add [bx+si],al
00088B8E  0000              add [bx+si],al
00088B90  0000              add [bx+si],al
00088B92  0000              add [bx+si],al
00088B94  0000              add [bx+si],al
00088B96  0000              add [bx+si],al
00088B98  0000              add [bx+si],al
00088B9A  0000              add [bx+si],al
00088B9C  0000              add [bx+si],al
00088B9E  0000              add [bx+si],al
00088BA0  0000              add [bx+si],al
00088BA2  0000              add [bx+si],al
00088BA4  0000              add [bx+si],al
00088BA6  0000              add [bx+si],al
00088BA8  0000              add [bx+si],al
00088BAA  0000              add [bx+si],al
00088BAC  0000              add [bx+si],al
00088BAE  0000              add [bx+si],al
00088BB0  0000              add [bx+si],al
00088BB2  0000              add [bx+si],al
00088BB4  0000              add [bx+si],al
00088BB6  0000              add [bx+si],al
00088BB8  0000              add [bx+si],al
00088BBA  0000              add [bx+si],al
00088BBC  0000              add [bx+si],al
00088BBE  0000              add [bx+si],al
00088BC0  0000              add [bx+si],al
00088BC2  0000              add [bx+si],al
00088BC4  0000              add [bx+si],al
00088BC6  0000              add [bx+si],al
00088BC8  0000              add [bx+si],al
00088BCA  0000              add [bx+si],al
00088BCC  0000              add [bx+si],al
00088BCE  0000              add [bx+si],al
00088BD0  0000              add [bx+si],al
00088BD2  0000              add [bx+si],al
00088BD4  0000              add [bx+si],al
00088BD6  0000              add [bx+si],al
00088BD8  0000              add [bx+si],al
00088BDA  0000              add [bx+si],al
00088BDC  0000              add [bx+si],al
00088BDE  0000              add [bx+si],al
00088BE0  0000              add [bx+si],al
00088BE2  0000              add [bx+si],al
00088BE4  0000              add [bx+si],al
00088BE6  0000              add [bx+si],al
00088BE8  0000              add [bx+si],al
00088BEA  0000              add [bx+si],al
00088BEC  0000              add [bx+si],al
00088BEE  0000              add [bx+si],al
00088BF0  0000              add [bx+si],al
00088BF2  0000              add [bx+si],al
00088BF4  0000              add [bx+si],al
00088BF6  0000              add [bx+si],al
00088BF8  0000              add [bx+si],al
00088BFA  0000              add [bx+si],al
00088BFC  0000              add [bx+si],al
00088BFE  0000              add [bx+si],al
00088C00  0000              add [bx+si],al
00088C02  0000              add [bx+si],al
00088C04  0000              add [bx+si],al
00088C06  0000              add [bx+si],al
00088C08  0000              add [bx+si],al
00088C0A  0000              add [bx+si],al
00088C0C  0000              add [bx+si],al
00088C0E  0000              add [bx+si],al
00088C10  0000              add [bx+si],al
00088C12  0000              add [bx+si],al
00088C14  0000              add [bx+si],al
00088C16  0000              add [bx+si],al
00088C18  0000              add [bx+si],al
00088C1A  0000              add [bx+si],al
00088C1C  0000              add [bx+si],al
00088C1E  0000              add [bx+si],al
00088C20  0000              add [bx+si],al
00088C22  0000              add [bx+si],al
00088C24  0000              add [bx+si],al
00088C26  0000              add [bx+si],al
00088C28  0000              add [bx+si],al
00088C2A  0000              add [bx+si],al
00088C2C  0000              add [bx+si],al
00088C2E  0000              add [bx+si],al
00088C30  0000              add [bx+si],al
00088C32  0000              add [bx+si],al
00088C34  0000              add [bx+si],al
00088C36  0000              add [bx+si],al
00088C38  0000              add [bx+si],al
00088C3A  0000              add [bx+si],al
00088C3C  0000              add [bx+si],al
00088C3E  0000              add [bx+si],al
00088C40  0000              add [bx+si],al
00088C42  0000              add [bx+si],al
00088C44  0000              add [bx+si],al
00088C46  0000              add [bx+si],al
00088C48  0000              add [bx+si],al
00088C4A  0000              add [bx+si],al
00088C4C  0000              add [bx+si],al
00088C4E  0000              add [bx+si],al
00088C50  0000              add [bx+si],al
00088C52  0000              add [bx+si],al
00088C54  0000              add [bx+si],al
00088C56  0000              add [bx+si],al
00088C58  0000              add [bx+si],al
00088C5A  0000              add [bx+si],al
00088C5C  0000              add [bx+si],al
00088C5E  0000              add [bx+si],al
00088C60  0000              add [bx+si],al
00088C62  0000              add [bx+si],al
00088C64  0000              add [bx+si],al
00088C66  0000              add [bx+si],al
00088C68  0000              add [bx+si],al
00088C6A  0000              add [bx+si],al
00088C6C  0000              add [bx+si],al
00088C6E  0000              add [bx+si],al
00088C70  0000              add [bx+si],al
00088C72  0000              add [bx+si],al
00088C74  0000              add [bx+si],al
00088C76  0000              add [bx+si],al
00088C78  0000              add [bx+si],al
00088C7A  0000              add [bx+si],al
00088C7C  0000              add [bx+si],al
00088C7E  0000              add [bx+si],al
00088C80  0000              add [bx+si],al
00088C82  0000              add [bx+si],al
00088C84  0000              add [bx+si],al
00088C86  0000              add [bx+si],al
00088C88  0000              add [bx+si],al
00088C8A  0000              add [bx+si],al
00088C8C  0000              add [bx+si],al
00088C8E  0000              add [bx+si],al
00088C90  0000              add [bx+si],al
00088C92  0000              add [bx+si],al
00088C94  0000              add [bx+si],al
00088C96  0000              add [bx+si],al
00088C98  0000              add [bx+si],al
00088C9A  0000              add [bx+si],al
00088C9C  0000              add [bx+si],al
00088C9E  0000              add [bx+si],al
00088CA0  0000              add [bx+si],al
00088CA2  0000              add [bx+si],al
00088CA4  0000              add [bx+si],al
00088CA6  0000              add [bx+si],al
00088CA8  0000              add [bx+si],al
00088CAA  0000              add [bx+si],al
00088CAC  0000              add [bx+si],al
00088CAE  0000              add [bx+si],al
00088CB0  0000              add [bx+si],al
00088CB2  0000              add [bx+si],al
00088CB4  0000              add [bx+si],al
00088CB6  0000              add [bx+si],al
00088CB8  0000              add [bx+si],al
00088CBA  0000              add [bx+si],al
00088CBC  0000              add [bx+si],al
00088CBE  0000              add [bx+si],al
00088CC0  0000              add [bx+si],al
00088CC2  0000              add [bx+si],al
00088CC4  0000              add [bx+si],al
00088CC6  0000              add [bx+si],al
00088CC8  0000              add [bx+si],al
00088CCA  0000              add [bx+si],al
00088CCC  0000              add [bx+si],al
00088CCE  0000              add [bx+si],al
00088CD0  0000              add [bx+si],al
00088CD2  0000              add [bx+si],al
00088CD4  0000              add [bx+si],al
00088CD6  0000              add [bx+si],al
00088CD8  0000              add [bx+si],al
00088CDA  0000              add [bx+si],al
00088CDC  0000              add [bx+si],al
00088CDE  0000              add [bx+si],al
00088CE0  0000              add [bx+si],al
00088CE2  0000              add [bx+si],al
00088CE4  0000              add [bx+si],al
00088CE6  0000              add [bx+si],al
00088CE8  0000              add [bx+si],al
00088CEA  0000              add [bx+si],al
00088CEC  0000              add [bx+si],al
00088CEE  0000              add [bx+si],al
00088CF0  0000              add [bx+si],al
00088CF2  0000              add [bx+si],al
00088CF4  0000              add [bx+si],al
00088CF6  0000              add [bx+si],al
00088CF8  0000              add [bx+si],al
00088CFA  0000              add [bx+si],al
00088CFC  0000              add [bx+si],al
00088CFE  0000              add [bx+si],al
00088D00  0000              add [bx+si],al
00088D02  0000              add [bx+si],al
00088D04  0000              add [bx+si],al
00088D06  0000              add [bx+si],al
00088D08  0000              add [bx+si],al
00088D0A  0000              add [bx+si],al
00088D0C  0000              add [bx+si],al
00088D0E  0000              add [bx+si],al
00088D10  0000              add [bx+si],al
00088D12  0000              add [bx+si],al
00088D14  0000              add [bx+si],al
00088D16  0000              add [bx+si],al
00088D18  0000              add [bx+si],al
00088D1A  0000              add [bx+si],al
00088D1C  0000              add [bx+si],al
00088D1E  0000              add [bx+si],al
00088D20  0000              add [bx+si],al
00088D22  0000              add [bx+si],al
00088D24  0000              add [bx+si],al
00088D26  0000              add [bx+si],al
00088D28  0000              add [bx+si],al
00088D2A  0000              add [bx+si],al
00088D2C  0000              add [bx+si],al
00088D2E  0000              add [bx+si],al
00088D30  0000              add [bx+si],al
00088D32  0000              add [bx+si],al
00088D34  0000              add [bx+si],al
00088D36  0000              add [bx+si],al
00088D38  0000              add [bx+si],al
00088D3A  0000              add [bx+si],al
00088D3C  0000              add [bx+si],al
00088D3E  0000              add [bx+si],al
00088D40  0000              add [bx+si],al
00088D42  0000              add [bx+si],al
00088D44  0000              add [bx+si],al
00088D46  0000              add [bx+si],al
00088D48  0000              add [bx+si],al
00088D4A  0000              add [bx+si],al
00088D4C  0000              add [bx+si],al
00088D4E  0000              add [bx+si],al
00088D50  0000              add [bx+si],al
00088D52  0000              add [bx+si],al
00088D54  0000              add [bx+si],al
00088D56  0000              add [bx+si],al
00088D58  0000              add [bx+si],al
00088D5A  0000              add [bx+si],al
00088D5C  0000              add [bx+si],al
00088D5E  0000              add [bx+si],al
00088D60  0000              add [bx+si],al
00088D62  0000              add [bx+si],al
00088D64  0000              add [bx+si],al
00088D66  0000              add [bx+si],al
00088D68  0000              add [bx+si],al
00088D6A  0000              add [bx+si],al
00088D6C  0000              add [bx+si],al
00088D6E  0000              add [bx+si],al
00088D70  0000              add [bx+si],al
00088D72  0000              add [bx+si],al
00088D74  0000              add [bx+si],al
00088D76  0000              add [bx+si],al
00088D78  0000              add [bx+si],al
00088D7A  0000              add [bx+si],al
00088D7C  0000              add [bx+si],al
00088D7E  0000              add [bx+si],al
00088D80  0000              add [bx+si],al
00088D82  0000              add [bx+si],al
00088D84  0000              add [bx+si],al
00088D86  0000              add [bx+si],al
00088D88  0000              add [bx+si],al
00088D8A  0000              add [bx+si],al
00088D8C  0000              add [bx+si],al
00088D8E  0000              add [bx+si],al
00088D90  0000              add [bx+si],al
00088D92  0000              add [bx+si],al
00088D94  0000              add [bx+si],al
00088D96  0000              add [bx+si],al
00088D98  0000              add [bx+si],al
00088D9A  0000              add [bx+si],al
00088D9C  0000              add [bx+si],al
00088D9E  0000              add [bx+si],al
00088DA0  0000              add [bx+si],al
00088DA2  0000              add [bx+si],al
00088DA4  0000              add [bx+si],al
00088DA6  0000              add [bx+si],al
00088DA8  0000              add [bx+si],al
00088DAA  0000              add [bx+si],al
00088DAC  0000              add [bx+si],al
00088DAE  0000              add [bx+si],al
00088DB0  0000              add [bx+si],al
00088DB2  0000              add [bx+si],al
00088DB4  0000              add [bx+si],al
00088DB6  0000              add [bx+si],al
00088DB8  0000              add [bx+si],al
00088DBA  0000              add [bx+si],al
00088DBC  0000              add [bx+si],al
00088DBE  0000              add [bx+si],al
00088DC0  0000              add [bx+si],al
00088DC2  0000              add [bx+si],al
00088DC4  0000              add [bx+si],al
00088DC6  0000              add [bx+si],al
00088DC8  0000              add [bx+si],al
00088DCA  0000              add [bx+si],al
00088DCC  0000              add [bx+si],al
00088DCE  0000              add [bx+si],al
00088DD0  0000              add [bx+si],al
00088DD2  0000              add [bx+si],al
00088DD4  0000              add [bx+si],al
00088DD6  0000              add [bx+si],al
00088DD8  0000              add [bx+si],al
00088DDA  0000              add [bx+si],al
00088DDC  0000              add [bx+si],al
00088DDE  0000              add [bx+si],al
00088DE0  0000              add [bx+si],al
00088DE2  0000              add [bx+si],al
00088DE4  0000              add [bx+si],al
00088DE6  0000              add [bx+si],al
00088DE8  0000              add [bx+si],al
00088DEA  0000              add [bx+si],al
00088DEC  0000              add [bx+si],al
00088DEE  0000              add [bx+si],al
00088DF0  0000              add [bx+si],al
00088DF2  0000              add [bx+si],al
00088DF4  0000              add [bx+si],al
00088DF6  0000              add [bx+si],al
00088DF8  0000              add [bx+si],al
00088DFA  0000              add [bx+si],al
00088DFC  0000              add [bx+si],al
00088DFE  0000              add [bx+si],al
00088E00  0000              add [bx+si],al
00088E02  0000              add [bx+si],al
00088E04  0000              add [bx+si],al
00088E06  0000              add [bx+si],al
00088E08  0000              add [bx+si],al
00088E0A  0000              add [bx+si],al
00088E0C  0000              add [bx+si],al
00088E0E  0000              add [bx+si],al
00088E10  0000              add [bx+si],al
00088E12  0000              add [bx+si],al
00088E14  0000              add [bx+si],al
00088E16  0000              add [bx+si],al
00088E18  0000              add [bx+si],al
00088E1A  0000              add [bx+si],al
00088E1C  0000              add [bx+si],al
00088E1E  0000              add [bx+si],al
00088E20  0000              add [bx+si],al
00088E22  0000              add [bx+si],al
00088E24  0000              add [bx+si],al
00088E26  0000              add [bx+si],al
00088E28  0000              add [bx+si],al
00088E2A  0000              add [bx+si],al
00088E2C  0000              add [bx+si],al
00088E2E  0000              add [bx+si],al
00088E30  0000              add [bx+si],al
00088E32  0000              add [bx+si],al
00088E34  0000              add [bx+si],al
00088E36  0000              add [bx+si],al
00088E38  0000              add [bx+si],al
00088E3A  0000              add [bx+si],al
00088E3C  0000              add [bx+si],al
00088E3E  0000              add [bx+si],al
00088E40  0000              add [bx+si],al
00088E42  0000              add [bx+si],al
00088E44  0000              add [bx+si],al
00088E46  0000              add [bx+si],al
00088E48  0000              add [bx+si],al
00088E4A  0000              add [bx+si],al
00088E4C  0000              add [bx+si],al
00088E4E  0000              add [bx+si],al
00088E50  0000              add [bx+si],al
00088E52  0000              add [bx+si],al
00088E54  0000              add [bx+si],al
00088E56  0000              add [bx+si],al
00088E58  0000              add [bx+si],al
00088E5A  0000              add [bx+si],al
00088E5C  0000              add [bx+si],al
00088E5E  0000              add [bx+si],al
00088E60  0000              add [bx+si],al
00088E62  0000              add [bx+si],al
00088E64  0000              add [bx+si],al
00088E66  0000              add [bx+si],al
00088E68  0000              add [bx+si],al
00088E6A  0000              add [bx+si],al
00088E6C  0000              add [bx+si],al
00088E6E  0000              add [bx+si],al
00088E70  0000              add [bx+si],al
00088E72  0000              add [bx+si],al
00088E74  0000              add [bx+si],al
00088E76  0000              add [bx+si],al
00088E78  0000              add [bx+si],al
00088E7A  0000              add [bx+si],al
00088E7C  0000              add [bx+si],al
00088E7E  0000              add [bx+si],al
00088E80  0000              add [bx+si],al
00088E82  0000              add [bx+si],al
00088E84  0000              add [bx+si],al
00088E86  0000              add [bx+si],al
00088E88  0000              add [bx+si],al
00088E8A  0000              add [bx+si],al
00088E8C  0000              add [bx+si],al
00088E8E  0000              add [bx+si],al
00088E90  0000              add [bx+si],al
00088E92  0000              add [bx+si],al
00088E94  0000              add [bx+si],al
00088E96  0000              add [bx+si],al
00088E98  0000              add [bx+si],al
00088E9A  0000              add [bx+si],al
00088E9C  0000              add [bx+si],al
00088E9E  0000              add [bx+si],al
00088EA0  0000              add [bx+si],al
00088EA2  0000              add [bx+si],al
00088EA4  0000              add [bx+si],al
00088EA6  0000              add [bx+si],al
00088EA8  0000              add [bx+si],al
00088EAA  0000              add [bx+si],al
00088EAC  0000              add [bx+si],al
00088EAE  0000              add [bx+si],al
00088EB0  0000              add [bx+si],al
00088EB2  0000              add [bx+si],al
00088EB4  0000              add [bx+si],al
00088EB6  0000              add [bx+si],al
00088EB8  0000              add [bx+si],al
00088EBA  0000              add [bx+si],al
00088EBC  0000              add [bx+si],al
00088EBE  0000              add [bx+si],al
00088EC0  0000              add [bx+si],al
00088EC2  0000              add [bx+si],al
00088EC4  0000              add [bx+si],al
00088EC6  0000              add [bx+si],al
00088EC8  0000              add [bx+si],al
00088ECA  0000              add [bx+si],al
00088ECC  0000              add [bx+si],al
00088ECE  0000              add [bx+si],al
00088ED0  0000              add [bx+si],al
00088ED2  0000              add [bx+si],al
00088ED4  0000              add [bx+si],al
00088ED6  0000              add [bx+si],al
00088ED8  0000              add [bx+si],al
00088EDA  0000              add [bx+si],al
00088EDC  0000              add [bx+si],al
00088EDE  0000              add [bx+si],al
00088EE0  0000              add [bx+si],al
00088EE2  0000              add [bx+si],al
00088EE4  0000              add [bx+si],al
00088EE6  0000              add [bx+si],al
00088EE8  0000              add [bx+si],al
00088EEA  0000              add [bx+si],al
00088EEC  0000              add [bx+si],al
00088EEE  0000              add [bx+si],al
00088EF0  0000              add [bx+si],al
00088EF2  0000              add [bx+si],al
00088EF4  0000              add [bx+si],al
00088EF6  0000              add [bx+si],al
00088EF8  0000              add [bx+si],al
00088EFA  0000              add [bx+si],al
00088EFC  0000              add [bx+si],al
00088EFE  0000              add [bx+si],al
00088F00  0000              add [bx+si],al
00088F02  0000              add [bx+si],al
00088F04  0000              add [bx+si],al
00088F06  0000              add [bx+si],al
00088F08  0000              add [bx+si],al
00088F0A  0000              add [bx+si],al
00088F0C  0000              add [bx+si],al
00088F0E  0000              add [bx+si],al
00088F10  0000              add [bx+si],al
00088F12  0000              add [bx+si],al
00088F14  0000              add [bx+si],al
00088F16  0000              add [bx+si],al
00088F18  0000              add [bx+si],al
00088F1A  0000              add [bx+si],al
00088F1C  0000              add [bx+si],al
00088F1E  0000              add [bx+si],al
00088F20  0000              add [bx+si],al
00088F22  0000              add [bx+si],al
00088F24  0000              add [bx+si],al
00088F26  0000              add [bx+si],al
00088F28  0000              add [bx+si],al
00088F2A  0000              add [bx+si],al
00088F2C  0000              add [bx+si],al
00088F2E  0000              add [bx+si],al
00088F30  0000              add [bx+si],al
00088F32  0000              add [bx+si],al
00088F34  0000              add [bx+si],al
00088F36  0000              add [bx+si],al
00088F38  0000              add [bx+si],al
00088F3A  0000              add [bx+si],al
00088F3C  0000              add [bx+si],al
00088F3E  0000              add [bx+si],al
00088F40  0000              add [bx+si],al
00088F42  0000              add [bx+si],al
00088F44  0000              add [bx+si],al
00088F46  0000              add [bx+si],al
00088F48  0000              add [bx+si],al
00088F4A  0000              add [bx+si],al
00088F4C  0000              add [bx+si],al
00088F4E  0000              add [bx+si],al
00088F50  0000              add [bx+si],al
00088F52  0000              add [bx+si],al
00088F54  0000              add [bx+si],al
00088F56  0000              add [bx+si],al
00088F58  0000              add [bx+si],al
00088F5A  0000              add [bx+si],al
00088F5C  0000              add [bx+si],al
00088F5E  0000              add [bx+si],al
00088F60  0000              add [bx+si],al
00088F62  0000              add [bx+si],al
00088F64  0000              add [bx+si],al
00088F66  0000              add [bx+si],al
00088F68  0000              add [bx+si],al
00088F6A  0000              add [bx+si],al
00088F6C  0000              add [bx+si],al
00088F6E  0000              add [bx+si],al
00088F70  0000              add [bx+si],al
00088F72  0000              add [bx+si],al
00088F74  0000              add [bx+si],al
00088F76  0000              add [bx+si],al
00088F78  0000              add [bx+si],al
00088F7A  0000              add [bx+si],al
00088F7C  0000              add [bx+si],al
00088F7E  0000              add [bx+si],al
00088F80  0000              add [bx+si],al
00088F82  0000              add [bx+si],al
00088F84  0000              add [bx+si],al
00088F86  0000              add [bx+si],al
00088F88  0000              add [bx+si],al
00088F8A  0000              add [bx+si],al
00088F8C  0000              add [bx+si],al
00088F8E  0000              add [bx+si],al
00088F90  0000              add [bx+si],al
00088F92  0000              add [bx+si],al
00088F94  0000              add [bx+si],al
00088F96  0000              add [bx+si],al
00088F98  0000              add [bx+si],al
00088F9A  0000              add [bx+si],al
00088F9C  0000              add [bx+si],al
00088F9E  0000              add [bx+si],al
00088FA0  0000              add [bx+si],al
00088FA2  0000              add [bx+si],al
00088FA4  0000              add [bx+si],al
00088FA6  0000              add [bx+si],al
00088FA8  0000              add [bx+si],al
00088FAA  0000              add [bx+si],al
00088FAC  0000              add [bx+si],al
00088FAE  0000              add [bx+si],al
00088FB0  0000              add [bx+si],al
00088FB2  0000              add [bx+si],al
00088FB4  0000              add [bx+si],al
00088FB6  0000              add [bx+si],al
00088FB8  0000              add [bx+si],al
00088FBA  0000              add [bx+si],al
00088FBC  0000              add [bx+si],al
00088FBE  0000              add [bx+si],al
00088FC0  0000              add [bx+si],al
00088FC2  0000              add [bx+si],al
00088FC4  0000              add [bx+si],al
00088FC6  0000              add [bx+si],al
00088FC8  0000              add [bx+si],al
00088FCA  0000              add [bx+si],al
00088FCC  0000              add [bx+si],al
00088FCE  0000              add [bx+si],al
00088FD0  0000              add [bx+si],al
00088FD2  0000              add [bx+si],al
00088FD4  0000              add [bx+si],al
00088FD6  0000              add [bx+si],al
00088FD8  0000              add [bx+si],al
00088FDA  0000              add [bx+si],al
00088FDC  0000              add [bx+si],al
00088FDE  0000              add [bx+si],al
00088FE0  0000              add [bx+si],al
00088FE2  0000              add [bx+si],al
00088FE4  0000              add [bx+si],al
00088FE6  0000              add [bx+si],al
00088FE8  0000              add [bx+si],al
00088FEA  0000              add [bx+si],al
00088FEC  0000              add [bx+si],al
00088FEE  0000              add [bx+si],al
00088FF0  0000              add [bx+si],al
00088FF2  0000              add [bx+si],al
00088FF4  0000              add [bx+si],al
00088FF6  0000              add [bx+si],al
00088FF8  0000              add [bx+si],al
00088FFA  0000              add [bx+si],al
00088FFC  0000              add [bx+si],al
00088FFE  0000              add [bx+si],al
00089000  0000              add [bx+si],al
00089002  0000              add [bx+si],al
00089004  0000              add [bx+si],al
00089006  0000              add [bx+si],al
00089008  0000              add [bx+si],al
0008900A  0000              add [bx+si],al
0008900C  0000              add [bx+si],al
0008900E  0000              add [bx+si],al
00089010  0000              add [bx+si],al
00089012  0000              add [bx+si],al
00089014  0000              add [bx+si],al
00089016  0000              add [bx+si],al
00089018  0000              add [bx+si],al
0008901A  0000              add [bx+si],al
0008901C  0000              add [bx+si],al
0008901E  0000              add [bx+si],al
00089020  0000              add [bx+si],al
00089022  0000              add [bx+si],al
00089024  0000              add [bx+si],al
00089026  0000              add [bx+si],al
00089028  0000              add [bx+si],al
0008902A  0000              add [bx+si],al
0008902C  0000              add [bx+si],al
0008902E  0000              add [bx+si],al
00089030  0000              add [bx+si],al
00089032  0000              add [bx+si],al
00089034  0000              add [bx+si],al
00089036  0000              add [bx+si],al
00089038  0000              add [bx+si],al
0008903A  0000              add [bx+si],al
0008903C  0000              add [bx+si],al
0008903E  0000              add [bx+si],al
00089040  0000              add [bx+si],al
00089042  0000              add [bx+si],al
00089044  0000              add [bx+si],al
00089046  0000              add [bx+si],al
00089048  0000              add [bx+si],al
0008904A  0000              add [bx+si],al
0008904C  0000              add [bx+si],al
0008904E  0000              add [bx+si],al
00089050  0000              add [bx+si],al
00089052  0000              add [bx+si],al
00089054  0000              add [bx+si],al
00089056  0000              add [bx+si],al
00089058  0000              add [bx+si],al
0008905A  0000              add [bx+si],al
0008905C  0000              add [bx+si],al
0008905E  0000              add [bx+si],al
00089060  0000              add [bx+si],al
00089062  0000              add [bx+si],al
00089064  0000              add [bx+si],al
00089066  0000              add [bx+si],al
00089068  0000              add [bx+si],al
0008906A  0000              add [bx+si],al
0008906C  0000              add [bx+si],al
0008906E  0000              add [bx+si],al
00089070  0000              add [bx+si],al
00089072  0000              add [bx+si],al
00089074  0000              add [bx+si],al
00089076  0000              add [bx+si],al
00089078  0000              add [bx+si],al
0008907A  0000              add [bx+si],al
0008907C  0000              add [bx+si],al
0008907E  0000              add [bx+si],al
00089080  0000              add [bx+si],al
00089082  0000              add [bx+si],al
00089084  0000              add [bx+si],al
00089086  0000              add [bx+si],al
00089088  0000              add [bx+si],al
0008908A  0000              add [bx+si],al
0008908C  0000              add [bx+si],al
0008908E  0000              add [bx+si],al
00089090  0000              add [bx+si],al
00089092  0000              add [bx+si],al
00089094  0000              add [bx+si],al
00089096  0000              add [bx+si],al
00089098  0000              add [bx+si],al
0008909A  0000              add [bx+si],al
0008909C  0000              add [bx+si],al
0008909E  0000              add [bx+si],al
000890A0  0000              add [bx+si],al
000890A2  0000              add [bx+si],al
000890A4  0000              add [bx+si],al
000890A6  0000              add [bx+si],al
000890A8  0000              add [bx+si],al
000890AA  0000              add [bx+si],al
000890AC  0000              add [bx+si],al
000890AE  0000              add [bx+si],al
000890B0  0000              add [bx+si],al
000890B2  0000              add [bx+si],al
000890B4  0000              add [bx+si],al
000890B6  0000              add [bx+si],al
000890B8  0000              add [bx+si],al
000890BA  0000              add [bx+si],al
000890BC  0000              add [bx+si],al
000890BE  0000              add [bx+si],al
000890C0  0000              add [bx+si],al
000890C2  0000              add [bx+si],al
000890C4  0000              add [bx+si],al
000890C6  0000              add [bx+si],al
000890C8  0000              add [bx+si],al
000890CA  0000              add [bx+si],al
000890CC  0000              add [bx+si],al
000890CE  0000              add [bx+si],al
000890D0  0000              add [bx+si],al
000890D2  0000              add [bx+si],al
000890D4  0000              add [bx+si],al
000890D6  0000              add [bx+si],al
000890D8  0000              add [bx+si],al
000890DA  0000              add [bx+si],al
000890DC  0000              add [bx+si],al
000890DE  0000              add [bx+si],al
000890E0  0000              add [bx+si],al
000890E2  0000              add [bx+si],al
000890E4  0000              add [bx+si],al
000890E6  0000              add [bx+si],al
000890E8  0000              add [bx+si],al
000890EA  0000              add [bx+si],al
000890EC  0000              add [bx+si],al
000890EE  0000              add [bx+si],al
000890F0  0000              add [bx+si],al
000890F2  0000              add [bx+si],al
000890F4  0000              add [bx+si],al
000890F6  0000              add [bx+si],al
000890F8  0000              add [bx+si],al
000890FA  0000              add [bx+si],al
000890FC  0000              add [bx+si],al
000890FE  0000              add [bx+si],al
00089100  0000              add [bx+si],al
00089102  0000              add [bx+si],al
00089104  0000              add [bx+si],al
00089106  0000              add [bx+si],al
00089108  0000              add [bx+si],al
0008910A  0000              add [bx+si],al
0008910C  0000              add [bx+si],al
0008910E  0000              add [bx+si],al
00089110  0000              add [bx+si],al
00089112  0000              add [bx+si],al
00089114  0000              add [bx+si],al
00089116  0000              add [bx+si],al
00089118  0000              add [bx+si],al
0008911A  0000              add [bx+si],al
0008911C  0000              add [bx+si],al
0008911E  0000              add [bx+si],al
00089120  0000              add [bx+si],al
00089122  0000              add [bx+si],al
00089124  0000              add [bx+si],al
00089126  0000              add [bx+si],al
00089128  0000              add [bx+si],al
0008912A  0000              add [bx+si],al
0008912C  0000              add [bx+si],al
0008912E  0000              add [bx+si],al
00089130  0000              add [bx+si],al
00089132  0000              add [bx+si],al
00089134  0000              add [bx+si],al
00089136  0000              add [bx+si],al
00089138  0000              add [bx+si],al
0008913A  0000              add [bx+si],al
0008913C  0000              add [bx+si],al
0008913E  0000              add [bx+si],al
00089140  0000              add [bx+si],al
00089142  0000              add [bx+si],al
00089144  0000              add [bx+si],al
00089146  0000              add [bx+si],al
00089148  0000              add [bx+si],al
0008914A  0000              add [bx+si],al
0008914C  0000              add [bx+si],al
0008914E  0000              add [bx+si],al
00089150  0000              add [bx+si],al
00089152  0000              add [bx+si],al
00089154  0000              add [bx+si],al
00089156  0000              add [bx+si],al
00089158  0000              add [bx+si],al
0008915A  0000              add [bx+si],al
0008915C  0000              add [bx+si],al
0008915E  0000              add [bx+si],al
00089160  0000              add [bx+si],al
00089162  0000              add [bx+si],al
00089164  0000              add [bx+si],al
00089166  0000              add [bx+si],al
00089168  0000              add [bx+si],al
0008916A  0000              add [bx+si],al
0008916C  0000              add [bx+si],al
0008916E  0000              add [bx+si],al
00089170  0000              add [bx+si],al
00089172  0000              add [bx+si],al
00089174  0000              add [bx+si],al
00089176  0000              add [bx+si],al
00089178  0000              add [bx+si],al
0008917A  0000              add [bx+si],al
0008917C  0000              add [bx+si],al
0008917E  0000              add [bx+si],al
00089180  0000              add [bx+si],al
00089182  0000              add [bx+si],al
00089184  0000              add [bx+si],al
00089186  0000              add [bx+si],al
00089188  0000              add [bx+si],al
0008918A  0000              add [bx+si],al
0008918C  0000              add [bx+si],al
0008918E  0000              add [bx+si],al
00089190  0000              add [bx+si],al
00089192  0000              add [bx+si],al
00089194  0000              add [bx+si],al
00089196  0000              add [bx+si],al
00089198  0000              add [bx+si],al
0008919A  0000              add [bx+si],al
0008919C  0000              add [bx+si],al
0008919E  0000              add [bx+si],al
000891A0  0000              add [bx+si],al
000891A2  0000              add [bx+si],al
000891A4  0000              add [bx+si],al
000891A6  0000              add [bx+si],al
000891A8  0000              add [bx+si],al
000891AA  0000              add [bx+si],al
000891AC  0000              add [bx+si],al
000891AE  0000              add [bx+si],al
000891B0  0000              add [bx+si],al
000891B2  0000              add [bx+si],al
000891B4  0000              add [bx+si],al
000891B6  0000              add [bx+si],al
000891B8  0000              add [bx+si],al
000891BA  0000              add [bx+si],al
000891BC  0000              add [bx+si],al
000891BE  0000              add [bx+si],al
000891C0  0000              add [bx+si],al
000891C2  0000              add [bx+si],al
000891C4  0000              add [bx+si],al
000891C6  0000              add [bx+si],al
000891C8  0000              add [bx+si],al
000891CA  0000              add [bx+si],al
000891CC  0000              add [bx+si],al
000891CE  0000              add [bx+si],al
000891D0  0000              add [bx+si],al
000891D2  0000              add [bx+si],al
000891D4  0000              add [bx+si],al
000891D6  0000              add [bx+si],al
000891D8  0000              add [bx+si],al
000891DA  0000              add [bx+si],al
000891DC  0000              add [bx+si],al
000891DE  0000              add [bx+si],al
000891E0  0000              add [bx+si],al
000891E2  0000              add [bx+si],al
000891E4  0000              add [bx+si],al
000891E6  0000              add [bx+si],al
000891E8  0000              add [bx+si],al
000891EA  0000              add [bx+si],al
000891EC  0000              add [bx+si],al
000891EE  0000              add [bx+si],al
000891F0  0000              add [bx+si],al
000891F2  0000              add [bx+si],al
000891F4  0000              add [bx+si],al
000891F6  0000              add [bx+si],al
000891F8  0000              add [bx+si],al
000891FA  0000              add [bx+si],al
000891FC  0000              add [bx+si],al
000891FE  0000              add [bx+si],al
00089200  0000              add [bx+si],al
00089202  0000              add [bx+si],al
00089204  0000              add [bx+si],al
00089206  0000              add [bx+si],al
00089208  0000              add [bx+si],al
0008920A  0000              add [bx+si],al
0008920C  0000              add [bx+si],al
0008920E  0000              add [bx+si],al
00089210  0000              add [bx+si],al
00089212  0000              add [bx+si],al
00089214  0000              add [bx+si],al
00089216  0000              add [bx+si],al
00089218  0000              add [bx+si],al
0008921A  0000              add [bx+si],al
0008921C  0000              add [bx+si],al
0008921E  0000              add [bx+si],al
00089220  0000              add [bx+si],al
00089222  0000              add [bx+si],al
00089224  0000              add [bx+si],al
00089226  0000              add [bx+si],al
00089228  0000              add [bx+si],al
0008922A  0000              add [bx+si],al
0008922C  0000              add [bx+si],al
0008922E  0000              add [bx+si],al
00089230  0000              add [bx+si],al
00089232  0000              add [bx+si],al
00089234  0000              add [bx+si],al
00089236  0000              add [bx+si],al
00089238  0000              add [bx+si],al
0008923A  0000              add [bx+si],al
0008923C  0000              add [bx+si],al
0008923E  0000              add [bx+si],al
00089240  0000              add [bx+si],al
00089242  0000              add [bx+si],al
00089244  0000              add [bx+si],al
00089246  0000              add [bx+si],al
00089248  0000              add [bx+si],al
0008924A  0000              add [bx+si],al
0008924C  0000              add [bx+si],al
0008924E  0000              add [bx+si],al
00089250  0000              add [bx+si],al
00089252  0000              add [bx+si],al
00089254  0000              add [bx+si],al
00089256  0000              add [bx+si],al
00089258  0000              add [bx+si],al
0008925A  0000              add [bx+si],al
0008925C  0000              add [bx+si],al
0008925E  0000              add [bx+si],al
00089260  0000              add [bx+si],al
00089262  0000              add [bx+si],al
00089264  0000              add [bx+si],al
00089266  0000              add [bx+si],al
00089268  0000              add [bx+si],al
0008926A  0000              add [bx+si],al
0008926C  0000              add [bx+si],al
0008926E  0000              add [bx+si],al
00089270  0000              add [bx+si],al
00089272  0000              add [bx+si],al
00089274  0000              add [bx+si],al
00089276  0000              add [bx+si],al
00089278  0000              add [bx+si],al
0008927A  0000              add [bx+si],al
0008927C  0000              add [bx+si],al
0008927E  0000              add [bx+si],al
00089280  0000              add [bx+si],al
00089282  0000              add [bx+si],al
00089284  0000              add [bx+si],al
00089286  0000              add [bx+si],al
00089288  0000              add [bx+si],al
0008928A  0000              add [bx+si],al
0008928C  0000              add [bx+si],al
0008928E  0000              add [bx+si],al
00089290  0000              add [bx+si],al
00089292  0000              add [bx+si],al
00089294  0000              add [bx+si],al
00089296  0000              add [bx+si],al
00089298  0000              add [bx+si],al
0008929A  0000              add [bx+si],al
0008929C  0000              add [bx+si],al
0008929E  0000              add [bx+si],al
000892A0  0000              add [bx+si],al
000892A2  0000              add [bx+si],al
000892A4  0000              add [bx+si],al
000892A6  0000              add [bx+si],al
000892A8  0000              add [bx+si],al
000892AA  0000              add [bx+si],al
000892AC  0000              add [bx+si],al
000892AE  0000              add [bx+si],al
000892B0  0000              add [bx+si],al
000892B2  0000              add [bx+si],al
000892B4  0000              add [bx+si],al
000892B6  0000              add [bx+si],al
000892B8  0000              add [bx+si],al
000892BA  0000              add [bx+si],al
000892BC  0000              add [bx+si],al
000892BE  0000              add [bx+si],al
000892C0  0000              add [bx+si],al
000892C2  0000              add [bx+si],al
000892C4  0000              add [bx+si],al
000892C6  0000              add [bx+si],al
000892C8  0000              add [bx+si],al
000892CA  0000              add [bx+si],al
000892CC  0000              add [bx+si],al
000892CE  0000              add [bx+si],al
000892D0  0000              add [bx+si],al
000892D2  0000              add [bx+si],al
000892D4  0000              add [bx+si],al
000892D6  0000              add [bx+si],al
000892D8  0000              add [bx+si],al
000892DA  0000              add [bx+si],al
000892DC  0000              add [bx+si],al
000892DE  0000              add [bx+si],al
000892E0  0000              add [bx+si],al
000892E2  0000              add [bx+si],al
000892E4  0000              add [bx+si],al
000892E6  0000              add [bx+si],al
000892E8  0000              add [bx+si],al
000892EA  0000              add [bx+si],al
000892EC  0000              add [bx+si],al
000892EE  0000              add [bx+si],al
000892F0  0000              add [bx+si],al
000892F2  0000              add [bx+si],al
000892F4  0000              add [bx+si],al
000892F6  0000              add [bx+si],al
000892F8  0000              add [bx+si],al
000892FA  0000              add [bx+si],al
000892FC  0000              add [bx+si],al
000892FE  0000              add [bx+si],al
00089300  0000              add [bx+si],al
00089302  0000              add [bx+si],al
00089304  0000              add [bx+si],al
00089306  0000              add [bx+si],al
00089308  0000              add [bx+si],al
0008930A  0000              add [bx+si],al
0008930C  0000              add [bx+si],al
0008930E  0000              add [bx+si],al
00089310  0000              add [bx+si],al
00089312  0000              add [bx+si],al
00089314  0000              add [bx+si],al
00089316  0000              add [bx+si],al
00089318  0000              add [bx+si],al
0008931A  0000              add [bx+si],al
0008931C  0000              add [bx+si],al
0008931E  0000              add [bx+si],al
00089320  0000              add [bx+si],al
00089322  0000              add [bx+si],al
00089324  0000              add [bx+si],al
00089326  0000              add [bx+si],al
00089328  0000              add [bx+si],al
0008932A  0000              add [bx+si],al
0008932C  0000              add [bx+si],al
0008932E  0000              add [bx+si],al
00089330  0000              add [bx+si],al
00089332  0000              add [bx+si],al
00089334  0000              add [bx+si],al
00089336  0000              add [bx+si],al
00089338  0000              add [bx+si],al
0008933A  0000              add [bx+si],al
0008933C  0000              add [bx+si],al
0008933E  0000              add [bx+si],al
00089340  0000              add [bx+si],al
00089342  0000              add [bx+si],al
00089344  0000              add [bx+si],al
00089346  0000              add [bx+si],al
00089348  0000              add [bx+si],al
0008934A  0000              add [bx+si],al
0008934C  0000              add [bx+si],al
0008934E  0000              add [bx+si],al
00089350  0000              add [bx+si],al
00089352  0000              add [bx+si],al
00089354  0000              add [bx+si],al
00089356  0000              add [bx+si],al
00089358  0000              add [bx+si],al
0008935A  0000              add [bx+si],al
0008935C  0000              add [bx+si],al
0008935E  0000              add [bx+si],al
00089360  0000              add [bx+si],al
00089362  0000              add [bx+si],al
00089364  0000              add [bx+si],al
00089366  0000              add [bx+si],al
00089368  0000              add [bx+si],al
0008936A  0000              add [bx+si],al
0008936C  0000              add [bx+si],al
0008936E  0000              add [bx+si],al
00089370  0000              add [bx+si],al
00089372  0000              add [bx+si],al
00089374  0000              add [bx+si],al
00089376  0000              add [bx+si],al
00089378  0000              add [bx+si],al
0008937A  0000              add [bx+si],al
0008937C  0000              add [bx+si],al
0008937E  0000              add [bx+si],al
00089380  0000              add [bx+si],al
00089382  0000              add [bx+si],al
00089384  0000              add [bx+si],al
00089386  0000              add [bx+si],al
00089388  0000              add [bx+si],al
0008938A  0000              add [bx+si],al
0008938C  0000              add [bx+si],al
0008938E  0000              add [bx+si],al
00089390  0000              add [bx+si],al
00089392  0000              add [bx+si],al
00089394  0000              add [bx+si],al
00089396  0000              add [bx+si],al
00089398  0000              add [bx+si],al
0008939A  0000              add [bx+si],al
0008939C  0000              add [bx+si],al
0008939E  0000              add [bx+si],al
000893A0  0000              add [bx+si],al
000893A2  0000              add [bx+si],al
000893A4  0000              add [bx+si],al
000893A6  0000              add [bx+si],al
000893A8  0000              add [bx+si],al
000893AA  0000              add [bx+si],al
000893AC  0000              add [bx+si],al
000893AE  0000              add [bx+si],al
000893B0  0000              add [bx+si],al
000893B2  0000              add [bx+si],al
000893B4  0000              add [bx+si],al
000893B6  0000              add [bx+si],al
000893B8  0000              add [bx+si],al
000893BA  0000              add [bx+si],al
000893BC  0000              add [bx+si],al
000893BE  0000              add [bx+si],al
000893C0  0000              add [bx+si],al
000893C2  0000              add [bx+si],al
000893C4  0000              add [bx+si],al
000893C6  0000              add [bx+si],al
000893C8  0000              add [bx+si],al
000893CA  0000              add [bx+si],al
000893CC  0000              add [bx+si],al
000893CE  0000              add [bx+si],al
000893D0  0000              add [bx+si],al
000893D2  0000              add [bx+si],al
000893D4  0000              add [bx+si],al
000893D6  0000              add [bx+si],al
000893D8  0000              add [bx+si],al
000893DA  0000              add [bx+si],al
000893DC  0000              add [bx+si],al
000893DE  0000              add [bx+si],al
000893E0  0000              add [bx+si],al
000893E2  0000              add [bx+si],al
000893E4  0000              add [bx+si],al
000893E6  0000              add [bx+si],al
000893E8  0000              add [bx+si],al
000893EA  0000              add [bx+si],al
000893EC  0000              add [bx+si],al
000893EE  0000              add [bx+si],al
000893F0  0000              add [bx+si],al
000893F2  0000              add [bx+si],al
000893F4  0000              add [bx+si],al
000893F6  0000              add [bx+si],al
000893F8  0000              add [bx+si],al
000893FA  0000              add [bx+si],al
000893FC  0000              add [bx+si],al
000893FE  0000              add [bx+si],al
00089400  0000              add [bx+si],al
00089402  0000              add [bx+si],al
00089404  0000              add [bx+si],al
00089406  0000              add [bx+si],al
00089408  0000              add [bx+si],al
0008940A  0000              add [bx+si],al
0008940C  0000              add [bx+si],al
0008940E  0000              add [bx+si],al
00089410  0000              add [bx+si],al
00089412  0000              add [bx+si],al
00089414  0000              add [bx+si],al
00089416  0000              add [bx+si],al
00089418  0000              add [bx+si],al
0008941A  0000              add [bx+si],al
0008941C  0000              add [bx+si],al
0008941E  0000              add [bx+si],al
00089420  0000              add [bx+si],al
00089422  0000              add [bx+si],al
00089424  0000              add [bx+si],al
00089426  0000              add [bx+si],al
00089428  0000              add [bx+si],al
0008942A  0000              add [bx+si],al
0008942C  0000              add [bx+si],al
0008942E  0000              add [bx+si],al
00089430  0000              add [bx+si],al
00089432  0000              add [bx+si],al
00089434  0000              add [bx+si],al
00089436  0000              add [bx+si],al
00089438  0000              add [bx+si],al
0008943A  0000              add [bx+si],al
0008943C  0000              add [bx+si],al
0008943E  0000              add [bx+si],al
00089440  0000              add [bx+si],al
00089442  0000              add [bx+si],al
00089444  0000              add [bx+si],al
00089446  0000              add [bx+si],al
00089448  0000              add [bx+si],al
0008944A  0000              add [bx+si],al
0008944C  0000              add [bx+si],al
0008944E  0000              add [bx+si],al
00089450  0000              add [bx+si],al
00089452  0000              add [bx+si],al
00089454  0000              add [bx+si],al
00089456  0000              add [bx+si],al
00089458  0000              add [bx+si],al
0008945A  0000              add [bx+si],al
0008945C  0000              add [bx+si],al
0008945E  0000              add [bx+si],al
00089460  0000              add [bx+si],al
00089462  0000              add [bx+si],al
00089464  0000              add [bx+si],al
00089466  0000              add [bx+si],al
00089468  0000              add [bx+si],al
0008946A  0000              add [bx+si],al
0008946C  0000              add [bx+si],al
0008946E  0000              add [bx+si],al
00089470  0000              add [bx+si],al
00089472  0000              add [bx+si],al
00089474  0000              add [bx+si],al
00089476  0000              add [bx+si],al
00089478  0000              add [bx+si],al
0008947A  0000              add [bx+si],al
0008947C  0000              add [bx+si],al
0008947E  0000              add [bx+si],al
00089480  0000              add [bx+si],al
00089482  0000              add [bx+si],al
00089484  0000              add [bx+si],al
00089486  0000              add [bx+si],al
00089488  0000              add [bx+si],al
0008948A  0000              add [bx+si],al
0008948C  0000              add [bx+si],al
0008948E  0000              add [bx+si],al
00089490  0000              add [bx+si],al
00089492  0000              add [bx+si],al
00089494  0000              add [bx+si],al
00089496  0000              add [bx+si],al
00089498  0000              add [bx+si],al
0008949A  0000              add [bx+si],al
0008949C  0000              add [bx+si],al
0008949E  0000              add [bx+si],al
000894A0  0000              add [bx+si],al
000894A2  0000              add [bx+si],al
000894A4  0000              add [bx+si],al
000894A6  0000              add [bx+si],al
000894A8  0000              add [bx+si],al
000894AA  0000              add [bx+si],al
000894AC  0000              add [bx+si],al
000894AE  0000              add [bx+si],al
000894B0  0000              add [bx+si],al
000894B2  0000              add [bx+si],al
000894B4  0000              add [bx+si],al
000894B6  0000              add [bx+si],al
000894B8  0000              add [bx+si],al
000894BA  0000              add [bx+si],al
000894BC  0000              add [bx+si],al
000894BE  0000              add [bx+si],al
000894C0  0000              add [bx+si],al
000894C2  0000              add [bx+si],al
000894C4  0000              add [bx+si],al
000894C6  0000              add [bx+si],al
000894C8  0000              add [bx+si],al
000894CA  0000              add [bx+si],al
000894CC  0000              add [bx+si],al
000894CE  0000              add [bx+si],al
000894D0  0000              add [bx+si],al
000894D2  0000              add [bx+si],al
000894D4  0000              add [bx+si],al
000894D6  0000              add [bx+si],al
000894D8  0000              add [bx+si],al
000894DA  0000              add [bx+si],al
000894DC  0000              add [bx+si],al
000894DE  0000              add [bx+si],al
000894E0  0000              add [bx+si],al
000894E2  0000              add [bx+si],al
000894E4  0000              add [bx+si],al
000894E6  0000              add [bx+si],al
000894E8  0000              add [bx+si],al
000894EA  0000              add [bx+si],al
000894EC  0000              add [bx+si],al
000894EE  0000              add [bx+si],al
000894F0  0000              add [bx+si],al
000894F2  0000              add [bx+si],al
000894F4  0000              add [bx+si],al
000894F6  0000              add [bx+si],al
000894F8  0000              add [bx+si],al
000894FA  0000              add [bx+si],al
000894FC  0000              add [bx+si],al
000894FE  0000              add [bx+si],al
00089500  0000              add [bx+si],al
00089502  0000              add [bx+si],al
00089504  0000              add [bx+si],al
00089506  0000              add [bx+si],al
00089508  0000              add [bx+si],al
0008950A  0000              add [bx+si],al
0008950C  0000              add [bx+si],al
0008950E  0000              add [bx+si],al
00089510  0000              add [bx+si],al
00089512  0000              add [bx+si],al
00089514  0000              add [bx+si],al
00089516  0000              add [bx+si],al
00089518  0000              add [bx+si],al
0008951A  0000              add [bx+si],al
0008951C  0000              add [bx+si],al
0008951E  0000              add [bx+si],al
00089520  0000              add [bx+si],al
00089522  0000              add [bx+si],al
00089524  0000              add [bx+si],al
00089526  0000              add [bx+si],al
00089528  0000              add [bx+si],al
0008952A  0000              add [bx+si],al
0008952C  0000              add [bx+si],al
0008952E  0000              add [bx+si],al
00089530  0000              add [bx+si],al
00089532  0000              add [bx+si],al
00089534  0000              add [bx+si],al
00089536  0000              add [bx+si],al
00089538  0000              add [bx+si],al
0008953A  0000              add [bx+si],al
0008953C  0000              add [bx+si],al
0008953E  0000              add [bx+si],al
00089540  0000              add [bx+si],al
00089542  0000              add [bx+si],al
00089544  0000              add [bx+si],al
00089546  0000              add [bx+si],al
00089548  0000              add [bx+si],al
0008954A  0000              add [bx+si],al
0008954C  0000              add [bx+si],al
0008954E  0000              add [bx+si],al
00089550  0000              add [bx+si],al
00089552  0000              add [bx+si],al
00089554  0000              add [bx+si],al
00089556  0000              add [bx+si],al
00089558  0000              add [bx+si],al
0008955A  0000              add [bx+si],al
0008955C  0000              add [bx+si],al
0008955E  0000              add [bx+si],al
00089560  0000              add [bx+si],al
00089562  0000              add [bx+si],al
00089564  0000              add [bx+si],al
00089566  0000              add [bx+si],al
00089568  0000              add [bx+si],al
0008956A  0000              add [bx+si],al
0008956C  0000              add [bx+si],al
0008956E  0000              add [bx+si],al
00089570  0000              add [bx+si],al
00089572  0000              add [bx+si],al
00089574  0000              add [bx+si],al
00089576  0000              add [bx+si],al
00089578  0000              add [bx+si],al
0008957A  0000              add [bx+si],al
0008957C  0000              add [bx+si],al
0008957E  0000              add [bx+si],al
00089580  0000              add [bx+si],al
00089582  0000              add [bx+si],al
00089584  0000              add [bx+si],al
00089586  0000              add [bx+si],al
00089588  0000              add [bx+si],al
0008958A  0000              add [bx+si],al
0008958C  0000              add [bx+si],al
0008958E  0000              add [bx+si],al
00089590  0000              add [bx+si],al
00089592  0000              add [bx+si],al
00089594  0000              add [bx+si],al
00089596  0000              add [bx+si],al
00089598  0000              add [bx+si],al
0008959A  0000              add [bx+si],al
0008959C  0000              add [bx+si],al
0008959E  0000              add [bx+si],al
000895A0  0000              add [bx+si],al
000895A2  0000              add [bx+si],al
000895A4  0000              add [bx+si],al
000895A6  0000              add [bx+si],al
000895A8  0000              add [bx+si],al
000895AA  0000              add [bx+si],al
000895AC  0000              add [bx+si],al
000895AE  0000              add [bx+si],al
000895B0  0000              add [bx+si],al
000895B2  0000              add [bx+si],al
000895B4  0000              add [bx+si],al
000895B6  0000              add [bx+si],al
000895B8  0000              add [bx+si],al
000895BA  0000              add [bx+si],al
000895BC  0000              add [bx+si],al
000895BE  0000              add [bx+si],al
000895C0  0000              add [bx+si],al
000895C2  0000              add [bx+si],al
000895C4  0000              add [bx+si],al
000895C6  0000              add [bx+si],al
000895C8  0000              add [bx+si],al
000895CA  0000              add [bx+si],al
000895CC  0000              add [bx+si],al
000895CE  0000              add [bx+si],al
000895D0  0000              add [bx+si],al
000895D2  0000              add [bx+si],al
000895D4  0000              add [bx+si],al
000895D6  0000              add [bx+si],al
000895D8  0000              add [bx+si],al
000895DA  0000              add [bx+si],al
000895DC  0000              add [bx+si],al
000895DE  0000              add [bx+si],al
000895E0  0000              add [bx+si],al
000895E2  0000              add [bx+si],al
000895E4  0000              add [bx+si],al
000895E6  0000              add [bx+si],al
000895E8  0000              add [bx+si],al
000895EA  0000              add [bx+si],al
000895EC  0000              add [bx+si],al
000895EE  0000              add [bx+si],al
000895F0  0000              add [bx+si],al
000895F2  0000              add [bx+si],al
000895F4  0000              add [bx+si],al
000895F6  0000              add [bx+si],al
000895F8  0000              add [bx+si],al
000895FA  0000              add [bx+si],al
000895FC  0000              add [bx+si],al
000895FE  0000              add [bx+si],al
00089600  0000              add [bx+si],al
00089602  0000              add [bx+si],al
00089604  0000              add [bx+si],al
00089606  0000              add [bx+si],al
00089608  0000              add [bx+si],al
0008960A  0000              add [bx+si],al
0008960C  0000              add [bx+si],al
0008960E  0000              add [bx+si],al
00089610  0000              add [bx+si],al
00089612  0000              add [bx+si],al
00089614  0000              add [bx+si],al
00089616  0000              add [bx+si],al
00089618  0000              add [bx+si],al
0008961A  0000              add [bx+si],al
0008961C  0000              add [bx+si],al
0008961E  0000              add [bx+si],al
00089620  0000              add [bx+si],al
00089622  0000              add [bx+si],al
00089624  0000              add [bx+si],al
00089626  0000              add [bx+si],al
00089628  0000              add [bx+si],al
0008962A  0000              add [bx+si],al
0008962C  0000              add [bx+si],al
0008962E  0000              add [bx+si],al
00089630  0000              add [bx+si],al
00089632  0000              add [bx+si],al
00089634  0000              add [bx+si],al
00089636  0000              add [bx+si],al
00089638  0000              add [bx+si],al
0008963A  0000              add [bx+si],al
0008963C  0000              add [bx+si],al
0008963E  0000              add [bx+si],al
00089640  0000              add [bx+si],al
00089642  0000              add [bx+si],al
00089644  0000              add [bx+si],al
00089646  0000              add [bx+si],al
00089648  0000              add [bx+si],al
0008964A  0000              add [bx+si],al
0008964C  0000              add [bx+si],al
0008964E  0000              add [bx+si],al
00089650  0000              add [bx+si],al
00089652  0000              add [bx+si],al
00089654  0000              add [bx+si],al
00089656  0000              add [bx+si],al
00089658  0000              add [bx+si],al
0008965A  0000              add [bx+si],al
0008965C  0000              add [bx+si],al
0008965E  0000              add [bx+si],al
00089660  0000              add [bx+si],al
00089662  0000              add [bx+si],al
00089664  0000              add [bx+si],al
00089666  0000              add [bx+si],al
00089668  0000              add [bx+si],al
0008966A  0000              add [bx+si],al
0008966C  0000              add [bx+si],al
0008966E  0000              add [bx+si],al
00089670  0000              add [bx+si],al
00089672  0000              add [bx+si],al
00089674  0000              add [bx+si],al
00089676  0000              add [bx+si],al
00089678  0000              add [bx+si],al
0008967A  0000              add [bx+si],al
0008967C  0000              add [bx+si],al
0008967E  0000              add [bx+si],al
00089680  0000              add [bx+si],al
00089682  0000              add [bx+si],al
00089684  0000              add [bx+si],al
00089686  0000              add [bx+si],al
00089688  0000              add [bx+si],al
0008968A  0000              add [bx+si],al
0008968C  0000              add [bx+si],al
0008968E  0000              add [bx+si],al
00089690  0000              add [bx+si],al
00089692  0000              add [bx+si],al
00089694  0000              add [bx+si],al
00089696  0000              add [bx+si],al
00089698  0000              add [bx+si],al
0008969A  0000              add [bx+si],al
0008969C  0000              add [bx+si],al
0008969E  0000              add [bx+si],al
000896A0  0000              add [bx+si],al
000896A2  0000              add [bx+si],al
000896A4  0000              add [bx+si],al
000896A6  0000              add [bx+si],al
000896A8  0000              add [bx+si],al
000896AA  0000              add [bx+si],al
000896AC  0000              add [bx+si],al
000896AE  0000              add [bx+si],al
000896B0  0000              add [bx+si],al
000896B2  0000              add [bx+si],al
000896B4  0000              add [bx+si],al
000896B6  0000              add [bx+si],al
000896B8  0000              add [bx+si],al
000896BA  0000              add [bx+si],al
000896BC  0000              add [bx+si],al
000896BE  0000              add [bx+si],al
000896C0  0000              add [bx+si],al
000896C2  0000              add [bx+si],al
000896C4  0000              add [bx+si],al
000896C6  0000              add [bx+si],al
000896C8  0000              add [bx+si],al
000896CA  0000              add [bx+si],al
000896CC  0000              add [bx+si],al
000896CE  0000              add [bx+si],al
000896D0  0000              add [bx+si],al
000896D2  0000              add [bx+si],al
000896D4  0000              add [bx+si],al
000896D6  0000              add [bx+si],al
000896D8  0000              add [bx+si],al
000896DA  0000              add [bx+si],al
000896DC  0000              add [bx+si],al
000896DE  0000              add [bx+si],al
000896E0  0000              add [bx+si],al
000896E2  0000              add [bx+si],al
000896E4  0000              add [bx+si],al
000896E6  0000              add [bx+si],al
000896E8  0000              add [bx+si],al
000896EA  0000              add [bx+si],al
000896EC  0000              add [bx+si],al
000896EE  0000              add [bx+si],al
000896F0  0000              add [bx+si],al
000896F2  0000              add [bx+si],al
000896F4  0000              add [bx+si],al
000896F6  0000              add [bx+si],al
000896F8  0000              add [bx+si],al
000896FA  0000              add [bx+si],al
000896FC  0000              add [bx+si],al
000896FE  0000              add [bx+si],al
00089700  0000              add [bx+si],al
00089702  0000              add [bx+si],al
00089704  0000              add [bx+si],al
00089706  0000              add [bx+si],al
00089708  0000              add [bx+si],al
0008970A  0000              add [bx+si],al
0008970C  0000              add [bx+si],al
0008970E  0000              add [bx+si],al
00089710  0000              add [bx+si],al
00089712  0000              add [bx+si],al
00089714  0000              add [bx+si],al
00089716  0000              add [bx+si],al
00089718  0000              add [bx+si],al
0008971A  0000              add [bx+si],al
0008971C  0000              add [bx+si],al
0008971E  0000              add [bx+si],al
00089720  0000              add [bx+si],al
00089722  0000              add [bx+si],al
00089724  0000              add [bx+si],al
00089726  0000              add [bx+si],al
00089728  0000              add [bx+si],al
0008972A  0000              add [bx+si],al
0008972C  0000              add [bx+si],al
0008972E  0000              add [bx+si],al
00089730  0000              add [bx+si],al
00089732  0000              add [bx+si],al
00089734  0000              add [bx+si],al
00089736  0000              add [bx+si],al
00089738  0000              add [bx+si],al
0008973A  0000              add [bx+si],al
0008973C  0000              add [bx+si],al
0008973E  0000              add [bx+si],al
00089740  0000              add [bx+si],al
00089742  0000              add [bx+si],al
00089744  0000              add [bx+si],al
00089746  0000              add [bx+si],al
00089748  0000              add [bx+si],al
0008974A  0000              add [bx+si],al
0008974C  0000              add [bx+si],al
0008974E  0000              add [bx+si],al
00089750  0000              add [bx+si],al
00089752  0000              add [bx+si],al
00089754  0000              add [bx+si],al
00089756  0000              add [bx+si],al
00089758  0000              add [bx+si],al
0008975A  0000              add [bx+si],al
0008975C  0000              add [bx+si],al
0008975E  0000              add [bx+si],al
00089760  0000              add [bx+si],al
00089762  0000              add [bx+si],al
00089764  0000              add [bx+si],al
00089766  0000              add [bx+si],al
00089768  0000              add [bx+si],al
0008976A  0000              add [bx+si],al
0008976C  0000              add [bx+si],al
0008976E  0000              add [bx+si],al
00089770  0000              add [bx+si],al
00089772  0000              add [bx+si],al
00089774  0000              add [bx+si],al
00089776  0000              add [bx+si],al
00089778  0000              add [bx+si],al
0008977A  0000              add [bx+si],al
